(dp0
S'METTS MARK'
p1
(dp2
S'salary'
p3
F365788.0
sS'to_messages'
p4
F807.0
sS'deferral_payments'
p5
F841602.5263157894
sS'total_payments'
p6
F1061827.0
sS'long_term_incentive'
p7
F746491.2
sS'loan_advances'
p8
F27975000.0
sS'bonus'
p9
F600000.0
sS'restricted_stock_deferred'
p10
F621892.8235294118
sS'total_stock_value'
p11
F585062.0
sS'expenses'
p12
F94299.0
sS'from_poi_to_this_person'
p13
F38.0
sS'exercised_stock_options'
p14
F3039980.4081632653
sS'from_messages'
p15
F29.0
sS'other'
p16
F1740.0
sS'from_this_person_to_poi'
p17
F1.0
sS'to_poi_ratio'
p18
F0.034482758620689655
sS'poi'
p19
I00
sS'deferred_income'
p20
F-581049.8125
sS'shared_receipt_with_poi'
p21
F702.0
sS'restricted_stock'
p22
F585062.0
sS'director_fees'
p23
F87858.26666666666
ssS'BAXTER JOHN C'
p24
(dp25
g3
F267102.0
sg4
F2073.860465116279
sg5
F1295738.0
sg6
F5634343.0
sg7
F1586055.0
sg8
F27975000.0
sg9
F1200000.0
sg10
F621892.8235294118
sg11
F10623258.0
sg12
F11200.0
sg13
F64.8953488372093
sg14
F6680544.0
sg15
F608.7906976744187
sg16
F2660303.0
sg17
F41.23255813953488
sg18
F0.06772862709145083
sg19
I00
sg20
F-1386055.0
sg21
F1176.4651162790697
sg22
F3942714.0
sg23
F87858.26666666666
ssS'ELLIOTT STEVEN'
p26
(dp27
g3
F170941.0
sg4
F2073.860465116279
sg5
F841602.5263157894
sg6
F211725.0
sg7
F746491.2
sg8
F27975000.0
sg9
F350000.0
sg10
F621892.8235294118
sg11
F6678735.0
sg12
F78552.0
sg13
F64.8953488372093
sg14
F4890344.0
sg15
F608.7906976744187
sg16
F12961.0
sg17
F41.23255813953488
sg18
F0.06772862709145083
sg19
I00
sg20
F-400729.0
sg21
F1176.4651162790697
sg22
F1788391.0
sg23
F87858.26666666666
ssS'CORDES WILLIAM R'
p28
(dp29
g3
F284087.5425531915
sg4
F764.0
sg5
F841602.5263157894
sg6
F2682919.4628099175
sg7
F746491.2
sg8
F27975000.0
sg9
F1201773.0740740742
sg10
F621892.8235294118
sg11
F1038185.0
sg12
F54192.01063829787
sg13
F10.0
sg14
F651850.0
sg15
F12.0
sg16
F469486.3777777778
sg17
F0.0
sg18
F0.0
sg19
I00
sg20
F-581049.8125
sg21
F58.0
sg22
F386335.0
sg23
F87858.26666666666
ssS'HANNON KEVIN P'
p30
(dp31
g3
F243293.0
sg4
F1045.0
sg5
F841602.5263157894
sg6
F288682.0
sg7
F1617011.0
sg8
F27975000.0
sg9
F1500000.0
sg10
F621892.8235294118
sg11
F6391065.0
sg12
F34039.0
sg13
F32.0
sg14
F5538001.0
sg15
F32.0
sg16
F11350.0
sg17
F21.0
sg18
F0.65625
sg19
I01
sg20
F-3117011.0
sg21
F1035.0
sg22
F853064.0
sg23
F87858.26666666666
ssS'MORDAUNT KRISTINA M'
p32
(dp33
g3
F267093.0
sg4
F2073.860465116279
sg5
F841602.5263157894
sg6
F628522.0
sg7
F746491.2
sg8
F27975000.0
sg9
F325000.0
sg10
F621892.8235294118
sg11
F208510.0
sg12
F35018.0
sg13
F64.8953488372093
sg14
F3039980.4081632653
sg15
F608.7906976744187
sg16
F1411.0
sg17
F41.23255813953488
sg18
F0.06772862709145083
sg19
I00
sg20
F-581049.8125
sg21
F1176.4651162790697
sg22
F208510.0
sg23
F87858.26666666666
ssS'MEYER ROCKFORD G'
p34
(dp35
g3
F284087.5425531915
sg4
F232.0
sg5
F1848227.0
sg6
F1848227.0
sg7
F746491.2
sg8
F27975000.0
sg9
F1201773.0740740742
sg10
F621892.8235294118
sg11
F955873.0
sg12
F54192.01063829787
sg13
F0.0
sg14
F493489.0
sg15
F28.0
sg16
F469486.3777777778
sg17
F0.0
sg18
F0.0
sg19
I00
sg20
F-581049.8125
sg21
F22.0
sg22
F462384.0
sg23
F87858.26666666666
ssS'MCMAHON JEFFREY'
p36
(dp37
g3
F370448.0
sg4
F2355.0
sg5
F841602.5263157894
sg6
F4099771.0
sg7
F694862.0
sg8
F27975000.0
sg9
F2600000.0
sg10
F621892.8235294118
sg11
F1662855.0
sg12
F137108.0
sg13
F58.0
sg14
F1104054.0
sg15
F48.0
sg16
F297353.0
sg17
F26.0
sg18
F0.5416666666666666
sg19
I00
sg20
F-581049.8125
sg21
F2228.0
sg22
F558801.0
sg23
F87858.26666666666
ssS'HORTON STANLEY C'
p38
(dp39
g3
F284087.5425531915
sg4
F2350.0
sg5
F3131860.0
sg6
F3131860.0
sg7
F746491.2
sg8
F27975000.0
sg9
F1201773.0740740742
sg10
F621892.8235294118
sg11
F7256648.0
sg12
F54192.01063829787
sg13
F44.0
sg14
F5210569.0
sg15
F1073.0
sg16
F469486.3777777778
sg17
F15.0
sg18
F0.013979496738117428
sg19
I00
sg20
F-581049.8125
sg21
F1074.0
sg22
F2046079.0
sg23
F87858.26666666666
ssS'PIPER GREGORY F'
p40
(dp41
g3
F197091.0
sg4
F1238.0
sg5
F1130036.0
sg6
F1737629.0
sg7
F746491.2
sg8
F27975000.0
sg9
F400000.0
sg10
F-409554.0
sg11
F880290.0
sg12
F43057.0
sg13
F61.0
sg14
F880290.0
sg15
F222.0
sg16
F778.0
sg17
F48.0
sg18
F0.21621621621621623
sg19
I00
sg20
F-33333.0
sg21
F742.0
sg22
F409554.0
sg23
F87858.26666666666
ssS'HUMPHREY GENE E'
p42
(dp43
g3
F130724.0
sg4
F128.0
sg5
F2964506.0
sg6
F3100224.0
sg7
F746491.2
sg8
F27975000.0
sg9
F1201773.0740740742
sg10
F621892.8235294118
sg11
F2282768.0
sg12
F4994.0
sg13
F10.0
sg14
F2282768.0
sg15
F17.0
sg16
F469486.3777777778
sg17
F17.0
sg18
F1.0
sg19
I00
sg20
F-581049.8125
sg21
F119.0
sg22
F1147424.0917431193
sg23
F87858.26666666666
ssS'UMANOFF ADAM S'
p44
(dp45
g3
F288589.0
sg4
F111.0
sg5
F841602.5263157894
sg6
F1130461.0
sg7
F746491.2
sg8
F27975000.0
sg9
F788750.0
sg10
F621892.8235294118
sg11
F3426325.598360656
sg12
F53122.0
sg13
F12.0
sg14
F3039980.4081632653
sg15
F18.0
sg16
F469486.3777777778
sg17
F0.0
sg18
F0.0
sg19
I00
sg20
F-581049.8125
sg21
F41.0
sg22
F1147424.0917431193
sg23
F87858.26666666666
ssS'BLACHMAN JEREMY M'
p46
(dp47
g3
F248546.0
sg4
F2475.0
sg5
F841602.5263157894
sg6
F2014835.0
sg7
F831809.0
sg8
F27975000.0
sg9
F850000.0
sg10
F621892.8235294118
sg11
F954354.0
sg12
F84208.0
sg13
F25.0
sg14
F765313.0
sg15
F14.0
sg16
F272.0
sg17
F2.0
sg18
F0.14285714285714285
sg19
I00
sg20
F-581049.8125
sg21
F2326.0
sg22
F189041.0
sg23
F87858.26666666666
ssS'SUNDE MARTIN'
p48
(dp49
g3
F257486.0
sg4
F2647.0
sg5
F841602.5263157894
sg6
F1545059.0
sg7
F476451.0
sg8
F27975000.0
sg9
F700000.0
sg10
F621892.8235294118
sg11
F698920.0
sg12
F54192.01063829787
sg13
F37.0
sg14
F3039980.4081632653
sg15
F38.0
sg16
F111122.0
sg17
F13.0
sg18
F0.34210526315789475
sg19
I00
sg20
F-581049.8125
sg21
F2565.0
sg22
F698920.0
sg23
F87858.26666666666
ssS'GIBBS DANA R'
p50
(dp51
g3
F284087.5425531915
sg4
F169.0
sg5
F504610.0
sg6
F966522.0
sg7
F461912.0
sg8
F27975000.0
sg9
F1201773.0740740742
sg10
F621892.8235294118
sg11
F2218275.0
sg12
F54192.01063829787
sg13
F0.0
sg14
F2218275.0
sg15
F12.0
sg16
F469486.3777777778
sg17
F0.0
sg18
F0.0
sg19
I00
sg20
F-581049.8125
sg21
F23.0
sg22
F1147424.0917431193
sg23
F87858.26666666666
ssS'LOWRY CHARLES P'
p52
(dp53
g3
F284087.5425531915
sg4
F2073.860465116279
sg5
F841602.5263157894
sg6
F2682919.4628099175
sg7
F746491.2
sg8
F27975000.0
sg9
F1201773.0740740742
sg10
F-153686.0
sg11
F372205.0
sg12
F54192.01063829787
sg13
F64.8953488372093
sg14
F372205.0
sg15
F608.7906976744187
sg16
F469486.3777777778
sg17
F41.23255813953488
sg18
F0.06772862709145083
sg19
I00
sg20
F-581049.8125
sg21
F1176.4651162790697
sg22
F153686.0
sg23
F87858.26666666666
ssS'COLWELL WESLEY'
p54
(dp55
g3
F288542.0
sg4
F1758.0
sg5
F27610.0
sg6
F1490344.0
sg7
F746491.2
sg8
F27975000.0
sg9
F1200000.0
sg10
F621892.8235294118
sg11
F698242.0
sg12
F16514.0
sg13
F240.0
sg14
F3039980.4081632653
sg15
F40.0
sg16
F101740.0
sg17
F11.0
sg18
F0.275
sg19
I01
sg20
F-144062.0
sg21
F1132.0
sg22
F698242.0
sg23
F87858.26666666666
ssS'MULLER MARK S'
p56
(dp57
g3
F251654.0
sg4
F136.0
sg5
F842924.0
sg6
F3202070.0
sg7
F1725545.0
sg8
F27975000.0
sg9
F1100000.0
sg10
F621892.8235294118
sg11
F1416848.0
sg12
F54192.01063829787
sg13
F12.0
sg14
F1056320.0
sg15
F16.0
sg16
F947.0
sg17
F0.0
sg18
F0.0
sg19
I00
sg20
F-719000.0
sg21
F114.0
sg22
F360528.0
sg23
F87858.26666666666
ssS'JACKSON CHARLENE R'
p58
(dp59
g3
F288558.0
sg4
F258.0
sg5
F841602.5263157894
sg6
F551174.0
sg7
F746491.2
sg8
F27975000.0
sg9
F250000.0
sg10
F621892.8235294118
sg11
F725735.0
sg12
F10181.0
sg13
F25.0
sg14
F185063.0
sg15
F56.0
sg16
F2435.0
sg17
F19.0
sg18
F0.3392857142857143
sg19
I00
sg20
F-581049.8125
sg21
F117.0
sg22
F540672.0
sg23
F87858.26666666666
ssS'WESTFAHL RICHARD K'
p60
(dp61
g3
F63744.0
sg4
F2073.860465116279
sg5
F841602.5263157894
sg6
F762135.0
sg7
F256191.0
sg8
F27975000.0
sg9
F1201773.0740740742
sg10
F621892.8235294118
sg11
F384930.0
sg12
F51870.0
sg13
F64.8953488372093
sg14
F3039980.4081632653
sg15
F608.7906976744187
sg16
F401130.0
sg17
F41.23255813953488
sg18
F0.06772862709145083
sg19
I00
sg20
F-10800.0
sg21
F1176.4651162790697
sg22
F384930.0
sg23
F87858.26666666666
ssS'WALTERS GARETH W'
p62
(dp63
g3
F284087.5425531915
sg4
F2073.860465116279
sg5
F53625.0
sg6
F87410.0
sg7
F746491.2
sg8
F27975000.0
sg9
F1201773.0740740742
sg10
F621892.8235294118
sg11
F1030329.0
sg12
F33785.0
sg13
F64.8953488372093
sg14
F1030329.0
sg15
F608.7906976744187
sg16
F469486.3777777778
sg17
F41.23255813953488
sg18
F0.06772862709145083
sg19
I00
sg20
F-581049.8125
sg21
F1176.4651162790697
sg22
F1147424.0917431193
sg23
F87858.26666666666
ssS'WALLS JR ROBERT H'
p64
(dp65
g3
F357091.0
sg4
F671.0
sg5
F841602.5263157894
sg6
F1798780.0
sg7
F540751.0
sg8
F27975000.0
sg9
F850000.0
sg10
F621892.8235294118
sg11
F5898997.0
sg12
F50936.0
sg13
F17.0
sg14
F4346544.0
sg15
F146.0
sg16
F2.0
sg17
F0.0
sg18
F0.0
sg19
I00
sg20
F-581049.8125
sg21
F215.0
sg22
F1552453.0
sg23
F87858.26666666666
ssS'KITCHEN LOUISE'
p66
(dp67
g3
F271442.0
sg4
F8305.0
sg5
F841602.5263157894
sg6
F3471141.0
sg7
F746491.2
sg8
F27975000.0
sg9
F3100000.0
sg10
F621892.8235294118
sg11
F547143.0
sg12
F5774.0
sg13
F251.0
sg14
F81042.0
sg15
F1728.0
sg16
F93925.0
sg17
F194.0
sg18
F0.11226851851851852
sg19
I00
sg20
F-581049.8125
sg21
F3669.0
sg22
F466101.0
sg23
F87858.26666666666
ssS'CHAN RONNIE'
p68
(dp69
g3
F284087.5425531915
sg4
F2073.860465116279
sg5
F841602.5263157894
sg6
F2682919.4628099175
sg7
F746491.2
sg8
F27975000.0
sg9
F1201773.0740740742
sg10
F-32460.0
sg11
F3426325.598360656
sg12
F54192.01063829787
sg13
F64.8953488372093
sg14
F3039980.4081632653
sg15
F608.7906976744187
sg16
F469486.3777777778
sg17
F41.23255813953488
sg18
F0.06772862709145083
sg19
I00
sg20
F-98784.0
sg21
F1176.4651162790697
sg22
F32460.0
sg23
F98784.0
ssS'BELFER ROBERT'
p70
(dp71
g3
F284087.5425531915
sg4
F2073.860465116279
sg5
F-102500.0
sg6
F102500.0
sg7
F746491.2
sg8
F27975000.0
sg9
F1201773.0740740742
sg10
F44093.0
sg11
F-44093.0
sg12
F54192.01063829787
sg13
F64.8953488372093
sg14
F3285.0
sg15
F608.7906976744187
sg16
F469486.3777777778
sg17
F41.23255813953488
sg18
F0.06772862709145083
sg19
I00
sg20
F-581049.8125
sg21
F1176.4651162790697
sg22
F1147424.0917431193
sg23
F3285.0
ssS'SHANKMAN JEFFREY A'
p72
(dp73
g3
F304110.0
sg4
F3221.0
sg5
F841602.5263157894
sg6
F3038702.0
sg7
F554422.0
sg8
F27975000.0
sg9
F2000000.0
sg10
F621892.8235294118
sg11
F2072035.0
sg12
F178979.0
sg13
F94.0
sg14
F1441898.0
sg15
F2681.0
sg16
F1191.0
sg17
F83.0
sg18
F0.030958597538232
sg19
I00
sg20
F-581049.8125
sg21
F1730.0
sg22
F630137.0
sg23
F87858.26666666666
ssS'BERGSIEKER RICHARD P'
p74
(dp75
g3
F187922.0
sg4
F383.0
sg5
F841602.5263157894
sg6
F618850.0
sg7
F180250.0
sg8
F27975000.0
sg9
F250000.0
sg10
F621892.8235294118
sg11
F659249.0
sg12
F59175.0
sg13
F4.0
sg14
F3039980.4081632653
sg15
F59.0
sg16
F427316.0
sg17
F0.0
sg18
F0.0
sg19
I00
sg20
F-485813.0
sg21
F233.0
sg22
F659249.0
sg23
F87858.26666666666
ssS'URQUHART JOHN A'
p76
(dp77
g3
F284087.5425531915
sg4
F2073.860465116279
sg5
F841602.5263157894
sg6
F228656.0
sg7
F746491.2
sg8
F27975000.0
sg9
F1201773.0740740742
sg10
F621892.8235294118
sg11
F3426325.598360656
sg12
F228656.0
sg13
F64.8953488372093
sg14
F3039980.4081632653
sg15
F608.7906976744187
sg16
F469486.3777777778
sg17
F41.23255813953488
sg18
F0.06772862709145083
sg19
I00
sg20
F-36666.0
sg21
F1176.4651162790697
sg22
F1147424.0917431193
sg23
F36666.0
ssS'BIBI PHILIPPE A'
p78
(dp79
g3
F213625.0
sg4
F1607.0
sg5
F841602.5263157894
sg6
F2047593.0
sg7
F369721.0
sg8
F27975000.0
sg9
F1000000.0
sg10
F621892.8235294118
sg11
F1843816.0
sg12
F38559.0
sg13
F23.0
sg14
F1465734.0
sg15
F40.0
sg16
F425688.0
sg17
F8.0
sg18
F0.2
sg19
I00
sg20
F-581049.8125
sg21
F1336.0
sg22
F378082.0
sg23
F87858.26666666666
ssS'PIRO JIM'
p80
(dp81
g3
F284087.5425531915
sg4
F58.0
sg5
F841602.5263157894
sg6
F2682919.4628099175
sg7
F746491.2
sg8
F27975000.0
sg9
F1201773.0740740742
sg10
F621892.8235294118
sg11
F47304.0
sg12
F54192.01063829787
sg13
F0.0
sg14
F3039980.4081632653
sg15
F16.0
sg16
F469486.3777777778
sg17
F1.0
sg18
F0.0625
sg19
I00
sg20
F-581049.8125
sg21
F3.0
sg22
F47304.0
sg23
F87858.26666666666
ssS'RIEKER PAULA H'
p82
(dp83
g3
F249201.0
sg4
F1328.0
sg5
F214678.0
sg6
F1099100.0
sg7
F746491.2
sg8
F27975000.0
sg9
F700000.0
sg10
F621892.8235294118
sg11
F1918887.0
sg12
F33271.0
sg13
F35.0
sg14
F1635238.0
sg15
F82.0
sg16
F1950.0
sg17
F48.0
sg18
F0.5853658536585366
sg19
I01
sg20
F-100000.0
sg21
F1258.0
sg22
F283649.0
sg23
F87858.26666666666
ssS'BECK SALLY W'
p84
(dp85
g3
F231330.0
sg4
F7315.0
sg5
F841602.5263157894
sg6
F969068.0
sg7
F746491.2
sg8
F27975000.0
sg9
F700000.0
sg10
F621892.8235294118
sg11
F126027.0
sg12
F37172.0
sg13
F144.0
sg14
F3039980.4081632653
sg15
F4343.0
sg16
F566.0
sg17
F386.0
sg18
F0.08887865530739121
sg19
I00
sg20
F-581049.8125
sg21
F2639.0
sg22
F126027.0
sg23
F87858.26666666666
ssS'HAUG DAVID L'
p86
(dp87
g3
F284087.5425531915
sg4
F573.0
sg5
F841602.5263157894
sg6
F475.0
sg7
F746491.2
sg8
F27975000.0
sg9
F1201773.0740740742
sg10
F621892.8235294118
sg11
F2217299.0
sg12
F475.0
sg13
F4.0
sg14
F3039980.4081632653
sg15
F19.0
sg16
F469486.3777777778
sg17
F7.0
sg18
F0.3684210526315789
sg19
I00
sg20
F-581049.8125
sg21
F471.0
sg22
F2217299.0
sg23
F87858.26666666666
ssS'ECHOLS JOHN B'
p88
(dp89
g3
F182245.0
sg4
F2073.860465116279
sg5
F841602.5263157894
sg6
F2692324.0
sg7
F2234774.0
sg8
F27975000.0
sg9
F200000.0
sg10
F621892.8235294118
sg11
F1008941.0
sg12
F21530.0
sg13
F64.8953488372093
sg14
F601438.0
sg15
F608.7906976744187
sg16
F53775.0
sg17
F41.23255813953488
sg18
F0.06772862709145083
sg19
I00
sg20
F-581049.8125
sg21
F1176.4651162790697
sg22
F407503.0
sg23
F87858.26666666666
ssS'MENDELSOHN JOHN'
p90
(dp91
g3
F284087.5425531915
sg4
F2073.860465116279
sg5
F841602.5263157894
sg6
F148.0
sg7
F746491.2
sg8
F27975000.0
sg9
F1201773.0740740742
sg10
F621892.8235294118
sg11
F3426325.598360656
sg12
F148.0
sg13
F64.8953488372093
sg14
F3039980.4081632653
sg15
F608.7906976744187
sg16
F469486.3777777778
sg17
F41.23255813953488
sg18
F0.06772862709145083
sg19
I00
sg20
F-103750.0
sg21
F1176.4651162790697
sg22
F1147424.0917431193
sg23
F103750.0
ssS'HICKERSON GARY J'
p92
(dp93
g3
F211788.0
sg4
F1320.0
sg5
F841602.5263157894
sg6
F2081796.0
sg7
F69223.0
sg8
F27975000.0
sg9
F1700000.0
sg10
F621892.8235294118
sg11
F441096.0
sg12
F98849.0
sg13
F40.0
sg14
F3039980.4081632653
sg15
F27.0
sg16
F1936.0
sg17
F1.0
sg18
F0.037037037037037035
sg19
I00
sg20
F-581049.8125
sg21
F900.0
sg22
F441096.0
sg23
F87858.26666666666
ssS'CLINE KENNETH W'
p94
(dp95
g3
F284087.5425531915
sg4
F2073.860465116279
sg5
F841602.5263157894
sg6
F2682919.4628099175
sg7
F746491.2
sg8
F27975000.0
sg9
F1201773.0740740742
sg10
F-472568.0
sg11
F189518.0
sg12
F54192.01063829787
sg13
F64.8953488372093
sg14
F3039980.4081632653
sg15
F608.7906976744187
sg16
F469486.3777777778
sg17
F41.23255813953488
sg18
F0.06772862709145083
sg19
I00
sg20
F-581049.8125
sg21
F1176.4651162790697
sg22
F662086.0
sg23
F87858.26666666666
ssS'LEWIS RICHARD'
p96
(dp97
g3
F284087.5425531915
sg4
F952.0
sg5
F841602.5263157894
sg6
F2682919.4628099175
sg7
F746491.2
sg8
F27975000.0
sg9
F1201773.0740740742
sg10
F621892.8235294118
sg11
F850477.0
sg12
F54192.01063829787
sg13
F10.0
sg14
F850477.0
sg15
F26.0
sg16
F469486.3777777778
sg17
F0.0
sg18
F0.0
sg19
I00
sg20
F-581049.8125
sg21
F739.0
sg22
F1147424.0917431193
sg23
F87858.26666666666
ssS'HAYES ROBERT E'
p98
(dp99
g3
F284087.5425531915
sg4
F504.0
sg5
F7961.0
sg6
F7961.0
sg7
F746491.2
sg8
F27975000.0
sg9
F1201773.0740740742
sg10
F621892.8235294118
sg11
F151418.0
sg12
F54192.01063829787
sg13
F16.0
sg14
F3039980.4081632653
sg15
F12.0
sg16
F469486.3777777778
sg17
F0.0
sg18
F0.0
sg19
I00
sg20
F-581049.8125
sg21
F50.0
sg22
F151418.0
sg23
F87858.26666666666
ssS'KOPPER MICHAEL J'
p100
(dp101
g3
F224305.0
sg4
F2073.860465116279
sg5
F841602.5263157894
sg6
F2652612.0
sg7
F602671.0
sg8
F27975000.0
sg9
F800000.0
sg10
F621892.8235294118
sg11
F985032.0
sg12
F118134.0
sg13
F64.8953488372093
sg14
F3039980.4081632653
sg15
F608.7906976744187
sg16
F907502.0
sg17
F41.23255813953488
sg18
F0.06772862709145083
sg19
I01
sg20
F-581049.8125
sg21
F1176.4651162790697
sg22
F985032.0
sg23
F87858.26666666666
ssS'LEFF DANIEL P'
p102
(dp103
g3
F273746.0
sg4
F2822.0
sg5
F841602.5263157894
sg6
F2664228.0
sg7
F1387399.0
sg8
F27975000.0
sg9
F1000000.0
sg10
F621892.8235294118
sg11
F360528.0
sg12
F54192.01063829787
sg13
F67.0
sg14
F3039980.4081632653
sg15
F63.0
sg16
F3083.0
sg17
F14.0
sg18
F0.2222222222222222
sg19
I00
sg20
F-581049.8125
sg21
F2672.0
sg22
F360528.0
sg23
F87858.26666666666
ssS'LAVORATO JOHN J'
p104
(dp105
g3
F339288.0
sg4
F7259.0
sg5
F841602.5263157894
sg6
F10425757.0
sg7
F2035380.0
sg8
F27975000.0
sg9
F8000000.0
sg10
F621892.8235294118
sg11
F5167144.0
sg12
F49537.0
sg13
F528.0
sg14
F4158995.0
sg15
F2585.0
sg16
F1552.0
sg17
F411.0
sg18
F0.15899419729206962
sg19
I00
sg20
F-581049.8125
sg21
F3962.0
sg22
F1008149.0
sg23
F87858.26666666666
ssS'BERBERIAN DAVID'
p106
(dp107
g3
F216582.0
sg4
F2073.860465116279
sg5
F841602.5263157894
sg6
F228474.0
sg7
F746491.2
sg8
F27975000.0
sg9
F1201773.0740740742
sg10
F621892.8235294118
sg11
F2493616.0
sg12
F11892.0
sg13
F64.8953488372093
sg14
F1624396.0
sg15
F608.7906976744187
sg16
F469486.3777777778
sg17
F41.23255813953488
sg18
F0.06772862709145083
sg19
I00
sg20
F-581049.8125
sg21
F1176.4651162790697
sg22
F869220.0
sg23
F87858.26666666666
ssS'DETMERING TIMOTHY J'
p108
(dp109
g3
F210500.0
sg4
F2073.860465116279
sg5
F875307.0
sg6
F1204583.0
sg7
F415657.0
sg8
F27975000.0
sg9
F425000.0
sg10
F-315068.0
sg11
F2027865.0
sg12
F52255.0
sg13
F64.8953488372093
sg14
F2027865.0
sg15
F608.7906976744187
sg16
F1105.0
sg17
F41.23255813953488
sg18
F0.06772862709145083
sg19
I00
sg20
F-775241.0
sg21
F1176.4651162790697
sg22
F315068.0
sg23
F87858.26666666666
ssS'WAKEHAM JOHN'
p110
(dp111
g3
F284087.5425531915
sg4
F2073.860465116279
sg5
F841602.5263157894
sg6
F213071.0
sg7
F746491.2
sg8
F27975000.0
sg9
F1201773.0740740742
sg10
F621892.8235294118
sg11
F3426325.598360656
sg12
F103773.0
sg13
F64.8953488372093
sg14
F3039980.4081632653
sg15
F608.7906976744187
sg16
F469486.3777777778
sg17
F41.23255813953488
sg18
F0.06772862709145083
sg19
I00
sg20
F-581049.8125
sg21
F1176.4651162790697
sg22
F1147424.0917431193
sg23
F109298.0
ssS'POWERS WILLIAM'
p112
(dp113
g3
F284087.5425531915
sg4
F653.0
sg5
F841602.5263157894
sg6
F2682919.4628099175
sg7
F746491.2
sg8
F27975000.0
sg9
F1201773.0740740742
sg10
F621892.8235294118
sg11
F3426325.598360656
sg12
F54192.01063829787
sg13
F0.0
sg14
F3039980.4081632653
sg15
F26.0
sg16
F469486.3777777778
sg17
F0.0
sg18
F0.0
sg19
I00
sg20
F-17500.0
sg21
F12.0
sg22
F1147424.0917431193
sg23
F17500.0
ssS'GOLD JOSEPH'
p114
(dp115
g3
F272880.0
sg4
F2073.860465116279
sg5
F841602.5263157894
sg6
F2146973.0
sg7
F304805.0
sg8
F27975000.0
sg9
F750000.0
sg10
F621892.8235294118
sg11
F877611.0
sg12
F54192.01063829787
sg13
F64.8953488372093
sg14
F436515.0
sg15
F608.7906976744187
sg16
F819288.0
sg17
F41.23255813953488
sg18
F0.06772862709145083
sg19
I00
sg20
F-581049.8125
sg21
F1176.4651162790697
sg22
F441096.0
sg23
F87858.26666666666
ssS'BANNANTINE JAMES M'
p116
(dp117
g3
F477.0
sg4
F566.0
sg5
F841602.5263157894
sg6
F916197.0
sg7
F746491.2
sg8
F27975000.0
sg9
F1201773.0740740742
sg10
F-560222.0
sg11
F5243487.0
sg12
F56301.0
sg13
F39.0
sg14
F4046157.0
sg15
F29.0
sg16
F864523.0
sg17
F0.0
sg18
F0.0
sg19
I00
sg20
F-5104.0
sg21
F465.0
sg22
F1757552.0
sg23
F87858.26666666666
ssS'DUNCAN JOHN H'
p118
(dp119
g3
F284087.5425531915
sg4
F2073.860465116279
sg5
F841602.5263157894
sg6
F77492.0
sg7
F746491.2
sg8
F27975000.0
sg9
F1201773.0740740742
sg10
F621892.8235294118
sg11
F371750.0
sg12
F54192.01063829787
sg13
F64.8953488372093
sg14
F371750.0
sg15
F608.7906976744187
sg16
F469486.3777777778
sg17
F41.23255813953488
sg18
F0.06772862709145083
sg19
I00
sg20
F-25000.0
sg21
F1176.4651162790697
sg22
F1147424.0917431193
sg23
F102492.0
ssS'SHAPIRO RICHARD S'
p120
(dp121
g3
F269076.0
sg4
F15149.0
sg5
F841602.5263157894
sg6
F1057548.0
sg7
F746491.2
sg8
F27975000.0
sg9
F650000.0
sg10
F621892.8235294118
sg11
F987001.0
sg12
F137767.0
sg13
F74.0
sg14
F607837.0
sg15
F1215.0
sg16
F705.0
sg17
F65.0
sg18
F0.053497942386831275
sg19
I00
sg20
F-581049.8125
sg21
F4527.0
sg22
F379164.0
sg23
F87858.26666666666
ssS'SHERRIFF JOHN R'
p122
(dp123
g3
F428780.0
sg4
F3187.0
sg5
F841602.5263157894
sg6
F4335388.0
sg7
F554422.0
sg8
F27975000.0
sg9
F1500000.0
sg10
F621892.8235294118
sg11
F3128982.0
sg12
F54192.01063829787
sg13
F28.0
sg14
F1835558.0
sg15
F92.0
sg16
F1852186.0
sg17
F23.0
sg18
F0.25
sg19
I00
sg20
F-581049.8125
sg21
F2103.0
sg22
F1293424.0
sg23
F87858.26666666666
ssS'SHELBY REX'
p124
(dp125
g3
F211844.0
sg4
F225.0
sg5
F841602.5263157894
sg6
F2003885.0
sg7
F746491.2
sg8
F27975000.0
sg9
F200000.0
sg10
F621892.8235294118
sg11
F2493616.0
sg12
F22884.0
sg13
F13.0
sg14
F1624396.0
sg15
F39.0
sg16
F1573324.0
sg17
F14.0
sg18
F0.358974358974359
sg19
I01
sg20
F-4167.0
sg21
F91.0
sg22
F869220.0
sg23
F87858.26666666666
ssS'LEMAISTRE CHARLES'
p126
(dp127
g3
F284087.5425531915
sg4
F2073.860465116279
sg5
F841602.5263157894
sg6
F87492.0
sg7
F746491.2
sg8
F27975000.0
sg9
F1201773.0740740742
sg10
F621892.8235294118
sg11
F412878.0
sg12
F54192.01063829787
sg13
F64.8953488372093
sg14
F412878.0
sg15
F608.7906976744187
sg16
F469486.3777777778
sg17
F41.23255813953488
sg18
F0.06772862709145083
sg19
I00
sg20
F-25000.0
sg21
F1176.4651162790697
sg22
F1147424.0917431193
sg23
F112492.0
ssS'DEFFNER JOSEPH M'
p128
(dp129
g3
F206121.0
sg4
F714.0
sg5
F841602.5263157894
sg6
F1208649.0
sg7
F335349.0
sg8
F27975000.0
sg9
F600000.0
sg10
F621892.8235294118
sg11
F159211.0
sg12
F41626.0
sg13
F115.0
sg14
F17378.0
sg15
F74.0
sg16
F25553.0
sg17
F4.0
sg18
F0.05405405405405406
sg19
I00
sg20
F-581049.8125
sg21
F552.0
sg22
F141833.0
sg23
F87858.26666666666
ssS'KISHKILL JOSEPH G'
p130
(dp131
g3
F174246.0
sg4
F2073.860465116279
sg5
F841602.5263157894
sg6
F704896.0
sg7
F746491.2
sg8
F27975000.0
sg9
F1201773.0740740742
sg10
F621892.8235294118
sg11
F1034346.0
sg12
F116335.0
sg13
F64.8953488372093
sg14
F3039980.4081632653
sg15
F608.7906976744187
sg16
F465357.0
sg17
F41.23255813953488
sg18
F0.06772862709145083
sg19
I00
sg20
F-51042.0
sg21
F1176.4651162790697
sg22
F1034346.0
sg23
F87858.26666666666
ssS'WHALLEY LAWRENCE G'
p132
(dp133
g3
F510364.0
sg4
F6019.0
sg5
F841602.5263157894
sg6
F4677574.0
sg7
F808346.0
sg8
F27975000.0
sg9
F3000000.0
sg10
F621892.8235294118
sg11
F6079137.0
sg12
F57838.0
sg13
F186.0
sg14
F3282960.0
sg15
F556.0
sg16
F301026.0
sg17
F24.0
sg18
F0.04316546762589928
sg19
I00
sg20
F-581049.8125
sg21
F3920.0
sg22
F2796177.0
sg23
F87858.26666666666
ssS'HAYSLETT RODERICK J'
p134
(dp135
g3
F284087.5425531915
sg4
F2649.0
sg5
F841602.5263157894
sg6
F2682919.4628099175
sg7
F746491.2
sg8
F27975000.0
sg9
F1201773.0740740742
sg10
F621892.8235294118
sg11
F346663.0
sg12
F54192.01063829787
sg13
F35.0
sg14
F3039980.4081632653
sg15
F1061.0
sg16
F469486.3777777778
sg17
F38.0
sg18
F0.03581526861451461
sg19
I00
sg20
F-581049.8125
sg21
F571.0
sg22
F346663.0
sg23
F87858.26666666666
ssS'MCCONNELL MICHAEL S'
p136
(dp137
g3
F365038.0
sg4
F3329.0
sg5
F841602.5263157894
sg6
F2101364.0
sg7
F554422.0
sg8
F27975000.0
sg9
F1100000.0
sg10
F621892.8235294118
sg11
F3101279.0
sg12
F81364.0
sg13
F92.0
sg14
F1623010.0
sg15
F2742.0
sg16
F540.0
sg17
F194.0
sg18
F0.07075127644055434
sg19
I00
sg20
F-581049.8125
sg21
F2189.0
sg22
F1478269.0
sg23
F87858.26666666666
ssS'DELAINEY DAVID W'
p138
(dp139
g3
F365163.0
sg4
F3093.0
sg5
F841602.5263157894
sg6
F4747979.0
sg7
F1294981.0
sg8
F27975000.0
sg9
F3000000.0
sg10
F621892.8235294118
sg11
F3614261.0
sg12
F86174.0
sg13
F66.0
sg14
F2291113.0
sg15
F3069.0
sg16
F1661.0
sg17
F609.0
sg18
F0.198435972629521
sg19
I01
sg20
F-581049.8125
sg21
F2097.0
sg22
F1323148.0
sg23
F87858.26666666666
ssS'SULLIVAN-SHAKLOVITZ COLLEEN'
p140
(dp141
g3
F162779.0
sg4
F2073.860465116279
sg5
F181993.0
sg6
F999356.0
sg7
F554422.0
sg8
F27975000.0
sg9
F100000.0
sg10
F621892.8235294118
sg11
F1362375.0
sg12
F54192.01063829787
sg13
F64.8953488372093
sg14
F1362375.0
sg15
F608.7906976744187
sg16
F162.0
sg17
F41.23255813953488
sg18
F0.06772862709145083
sg19
I00
sg20
F-581049.8125
sg21
F1176.4651162790697
sg22
F1147424.0917431193
sg23
F87858.26666666666
ssS'LINDHOLM TOD A'
p142
(dp143
g3
F236457.0
sg4
F2073.860465116279
sg5
F204075.0
sg6
F875889.0
sg7
F175000.0
sg8
F27975000.0
sg9
F200000.0
sg10
F621892.8235294118
sg11
F3064208.0
sg12
F57727.0
sg13
F64.8953488372093
sg14
F2549361.0
sg15
F608.7906976744187
sg16
F2630.0
sg17
F41.23255813953488
sg18
F0.06772862709145083
sg19
I00
sg20
F-581049.8125
sg21
F1176.4651162790697
sg22
F514847.0
sg23
F87858.26666666666
ssS'MEYER JEROME J'
p144
(dp145
g3
F284087.5425531915
sg4
F2073.860465116279
sg5
F841602.5263157894
sg6
F2151.0
sg7
F746491.2
sg8
F27975000.0
sg9
F1201773.0740740742
sg10
F621892.8235294118
sg11
F3426325.598360656
sg12
F2151.0
sg13
F64.8953488372093
sg14
F3039980.4081632653
sg15
F608.7906976744187
sg16
F469486.3777777778
sg17
F41.23255813953488
sg18
F0.06772862709145083
sg19
I00
sg20
F-38346.0
sg21
F1176.4651162790697
sg22
F1147424.0917431193
sg23
F38346.0
ssS'LAY KENNETH L'
p146
(dp147
g3
F1072321.0
sg4
F4273.0
sg5
F202911.0
sg6
F103559793.0
sg7
F3600000.0
sg8
F81525000.0
sg9
F7000000.0
sg10
F621892.8235294118
sg11
F49110078.0
sg12
F99832.0
sg13
F123.0
sg14
F34348384.0
sg15
F36.0
sg16
F10359729.0
sg17
F16.0
sg18
F0.4444444444444444
sg19
I01
sg20
F-300000.0
sg21
F2411.0
sg22
F14761694.0
sg23
F87858.26666666666
ssS'BUTTS ROBERT H'
p148
(dp149
g3
F261516.0
sg4
F2073.860465116279
sg5
F841602.5263157894
sg6
F1271582.0
sg7
F175000.0
sg8
F27975000.0
sg9
F750000.0
sg10
F621892.8235294118
sg11
F417619.0
sg12
F9410.0
sg13
F64.8953488372093
sg14
F3039980.4081632653
sg15
F608.7906976744187
sg16
F150656.0
sg17
F41.23255813953488
sg18
F0.06772862709145083
sg19
I00
sg20
F-75000.0
sg21
F1176.4651162790697
sg22
F417619.0
sg23
F87858.26666666666
ssS'OLSON CINDY K'
p150
(dp151
g3
F329078.0
sg4
F1184.0
sg5
F77716.0
sg6
F1321557.0
sg7
F100000.0
sg8
F27975000.0
sg9
F750000.0
sg10
F621892.8235294118
sg11
F2606763.0
sg12
F63791.0
sg13
F20.0
sg14
F1637034.0
sg15
F52.0
sg16
F972.0
sg17
F15.0
sg18
F0.28846153846153844
sg19
I00
sg20
F-581049.8125
sg21
F856.0
sg22
F969729.0
sg23
F87858.26666666666
ssS'MCDONALD REBECCA'
p152
(dp153
g3
F284087.5425531915
sg4
F894.0
sg5
F841602.5263157894
sg6
F2682919.4628099175
sg7
F746491.2
sg8
F27975000.0
sg9
F1201773.0740740742
sg10
F621892.8235294118
sg11
F1691366.0
sg12
F54192.01063829787
sg13
F54.0
sg14
F757301.0
sg15
F13.0
sg16
F469486.3777777778
sg17
F1.0
sg18
F0.07692307692307693
sg19
I00
sg20
F-581049.8125
sg21
F720.0
sg22
F934065.0
sg23
F87858.26666666666
ssS'CUMBERLAND MICHAEL S'
p154
(dp155
g3
F184899.0
sg4
F2073.860465116279
sg5
F841602.5263157894
sg6
F807956.0
sg7
F275000.0
sg8
F27975000.0
sg9
F325000.0
sg10
F621892.8235294118
sg11
F207940.0
sg12
F22344.0
sg13
F64.8953488372093
sg14
F3039980.4081632653
sg15
F608.7906976744187
sg16
F713.0
sg17
F41.23255813953488
sg18
F0.06772862709145083
sg19
I00
sg20
F-581049.8125
sg21
F1176.4651162790697
sg22
F207940.0
sg23
F87858.26666666666
ssS'GAHN ROBERT S'
p156
(dp157
g3
F192008.0
sg4
F2073.860465116279
sg5
F73122.0
sg6
F900585.0
sg7
F746491.2
sg8
F27975000.0
sg9
F509870.0
sg10
F621892.8235294118
sg11
F318607.0
sg12
F50080.0
sg13
F64.8953488372093
sg14
F83237.0
sg15
F608.7906976744187
sg16
F76547.0
sg17
F41.23255813953488
sg18
F0.06772862709145083
sg19
I00
sg20
F-1042.0
sg21
F1176.4651162790697
sg22
F235370.0
sg23
F87858.26666666666
ssS'MCCLELLAN GEORGE'
p158
(dp159
g3
F263413.0
sg4
F1744.0
sg5
F841602.5263157894
sg6
F1318763.0
sg7
F746491.2
sg8
F27975000.0
sg9
F900000.0
sg10
F621892.8235294118
sg11
F947861.0
sg12
F228763.0
sg13
F52.0
sg14
F506765.0
sg15
F49.0
sg16
F51587.0
sg17
F0.0
sg18
F0.0
sg19
I00
sg20
F-125000.0
sg21
F1469.0
sg22
F441096.0
sg23
F87858.26666666666
ssS'HERMANN ROBERT J'
p160
(dp161
g3
F262663.0
sg4
F2073.860465116279
sg5
F841602.5263157894
sg6
F1297461.0
sg7
F150000.0
sg8
F27975000.0
sg9
F700000.0
sg10
F621892.8235294118
sg11
F668132.0
sg12
F48357.0
sg13
F64.8953488372093
sg14
F187500.0
sg15
F608.7906976744187
sg16
F416441.0
sg17
F41.23255813953488
sg18
F0.06772862709145083
sg19
I00
sg20
F-280000.0
sg21
F1176.4651162790697
sg22
F480632.0
sg23
F87858.26666666666
ssS'GATHMANN WILLIAM D'
p162
(dp163
g3
F284087.5425531915
sg4
F2073.860465116279
sg5
F841602.5263157894
sg6
F2682919.4628099175
sg7
F746491.2
sg8
F27975000.0
sg9
F1201773.0740740742
sg10
F-72419.0
sg11
F1945360.0
sg12
F54192.01063829787
sg13
F64.8953488372093
sg14
F1753766.0
sg15
F608.7906976744187
sg16
F469486.3777777778
sg17
F41.23255813953488
sg18
F0.06772862709145083
sg19
I00
sg20
F-581049.8125
sg21
F1176.4651162790697
sg22
F264013.0
sg23
F87858.26666666666
ssS'HAEDICKE MARK E'
p164
(dp165
g3
F374125.0
sg4
F4009.0
sg5
F2157527.0
sg6
F3859065.0
sg7
F983346.0
sg8
F27975000.0
sg9
F1150000.0
sg10
F-329825.0
sg11
F803094.0
sg12
F76169.0
sg13
F180.0
sg14
F608750.0
sg15
F1941.0
sg16
F52382.0
sg17
F61.0
sg18
F0.03142709943328181
sg19
I00
sg20
F-934484.0
sg21
F1847.0
sg22
F524169.0
sg23
F87858.26666666666
ssS'BOWEN JR RAYMOND M'
p166
(dp167
g3
F278601.0
sg4
F1858.0
sg5
F841602.5263157894
sg6
F2669589.0
sg7
F974293.0
sg8
F27975000.0
sg9
F1350000.0
sg10
F621892.8235294118
sg11
F252055.0
sg12
F65907.0
sg13
F140.0
sg14
F3039980.4081632653
sg15
F27.0
sg16
F1621.0
sg17
F15.0
sg18
F0.5555555555555556
sg19
I01
sg20
F-833.0
sg21
F1593.0
sg22
F252055.0
sg23
F87858.26666666666
ssS'GILLIS JOHN'
p168
(dp169
g3
F284087.5425531915
sg4
F2073.860465116279
sg5
F841602.5263157894
sg6
F2682919.4628099175
sg7
F746491.2
sg8
F27975000.0
sg9
F1201773.0740740742
sg10
F621892.8235294118
sg11
F85641.0
sg12
F54192.01063829787
sg13
F64.8953488372093
sg14
F9803.0
sg15
F608.7906976744187
sg16
F469486.3777777778
sg17
F41.23255813953488
sg18
F0.06772862709145083
sg19
I00
sg20
F-581049.8125
sg21
F1176.4651162790697
sg22
F75838.0
sg23
F87858.26666666666
ssS'FITZGERALD JAY L'
p170
(dp171
g3
F199157.0
sg4
F936.0
sg5
F841602.5263157894
sg6
F1414857.0
sg7
F556416.0
sg8
F27975000.0
sg9
F350000.0
sg10
F621892.8235294118
sg11
F1621236.0
sg12
F23870.0
sg13
F1.0
sg14
F664461.0
sg15
F16.0
sg16
F285414.0
sg17
F8.0
sg18
F0.5
sg19
I00
sg20
F-581049.8125
sg21
F723.0
sg22
F956775.0
sg23
F87858.26666666666
ssS'MORAN MICHAEL P'
p172
(dp173
g3
F284087.5425531915
sg4
F672.0
sg5
F841602.5263157894
sg6
F2682919.4628099175
sg7
F746491.2
sg8
F27975000.0
sg9
F1201773.0740740742
sg10
F621892.8235294118
sg11
F221141.0
sg12
F54192.01063829787
sg13
F0.0
sg14
F59539.0
sg15
F19.0
sg16
F469486.3777777778
sg17
F0.0
sg18
F0.0
sg19
I00
sg20
F-581049.8125
sg21
F127.0
sg22
F161602.0
sg23
F87858.26666666666
ssS'REDMOND BRIAN L'
p174
(dp175
g3
F96840.0
sg4
F1671.0
sg5
F841602.5263157894
sg6
F111529.0
sg7
F746491.2
sg8
F27975000.0
sg9
F1201773.0740740742
sg10
F621892.8235294118
sg11
F7890324.0
sg12
F14689.0
sg13
F204.0
sg14
F7509039.0
sg15
F221.0
sg16
F469486.3777777778
sg17
F49.0
sg18
F0.22171945701357465
sg19
I00
sg20
F-581049.8125
sg21
F1063.0
sg22
F381285.0
sg23
F87858.26666666666
ssS'BAZELIDES PHILIP J'
p176
(dp177
g3
F80818.0
sg4
F2073.860465116279
sg5
F684694.0
sg6
F860136.0
sg7
F93750.0
sg8
F27975000.0
sg9
F1201773.0740740742
sg10
F621892.8235294118
sg11
F1599641.0
sg12
F54192.01063829787
sg13
F64.8953488372093
sg14
F1599641.0
sg15
F608.7906976744187
sg16
F874.0
sg17
F41.23255813953488
sg18
F0.06772862709145083
sg19
I00
sg20
F-581049.8125
sg21
F1176.4651162790697
sg22
F1147424.0917431193
sg23
F87858.26666666666
ssS'BELDEN TIMOTHY N'
p178
(dp179
g3
F213999.0
sg4
F7991.0
sg5
F2144013.0
sg6
F5501630.0
sg7
F746491.2
sg8
F27975000.0
sg9
F5249999.0
sg10
F621892.8235294118
sg11
F1110705.0
sg12
F17355.0
sg13
F228.0
sg14
F953136.0
sg15
F484.0
sg16
F210698.0
sg17
F108.0
sg18
F0.2231404958677686
sg19
I01
sg20
F-2334434.0
sg21
F5521.0
sg22
F157569.0
sg23
F87858.26666666666
ssS'DURAN WILLIAM D'
p180
(dp181
g3
F210692.0
sg4
F904.0
sg5
F841602.5263157894
sg6
F2093263.0
sg7
F1105218.0
sg8
F27975000.0
sg9
F750000.0
sg10
F621892.8235294118
sg11
F1640910.0
sg12
F25785.0
sg13
F106.0
sg14
F1451869.0
sg15
F12.0
sg16
F1568.0
sg17
F3.0
sg18
F0.25
sg19
I00
sg20
F-581049.8125
sg21
F599.0
sg22
F189041.0
sg23
F87858.26666666666
ssS'THORN TERENCE H'
p182
(dp183
g3
F222093.0
sg4
F266.0
sg5
F16586.0
sg6
F911453.0
sg7
F200000.0
sg8
F27975000.0
sg9
F1201773.0740740742
sg10
F621892.8235294118
sg11
F4817796.0
sg12
F46145.0
sg13
F0.0
sg14
F4452476.0
sg15
F41.0
sg16
F426629.0
sg17
F0.0
sg18
F0.0
sg19
I00
sg20
F-581049.8125
sg21
F73.0
sg22
F365320.0
sg23
F87858.26666666666
ssS'FASTOW ANDREW S'
p184
(dp185
g3
F440698.0
sg4
F2073.860465116279
sg5
F841602.5263157894
sg6
F2424083.0
sg7
F1736055.0
sg8
F27975000.0
sg9
F1300000.0
sg10
F621892.8235294118
sg11
F1794412.0
sg12
F55921.0
sg13
F64.8953488372093
sg14
F3039980.4081632653
sg15
F608.7906976744187
sg16
F277464.0
sg17
F41.23255813953488
sg18
F0.06772862709145083
sg19
I01
sg20
F-1386055.0
sg21
F1176.4651162790697
sg22
F1794412.0
sg23
F87858.26666666666
ssS'FOY JOE'
p186
(dp187
g3
F284087.5425531915
sg4
F57.0
sg5
F181755.0
sg6
F181755.0
sg7
F746491.2
sg8
F27975000.0
sg9
F1201773.0740740742
sg10
F621892.8235294118
sg11
F343434.0
sg12
F54192.01063829787
sg13
F0.0
sg14
F343434.0
sg15
F13.0
sg16
F469486.3777777778
sg17
F0.0
sg18
F0.0
sg19
I00
sg20
F-581049.8125
sg21
F2.0
sg22
F1147424.0917431193
sg23
F87858.26666666666
ssS'CALGER CHRISTOPHER F'
p188
(dp189
g3
F240189.0
sg4
F2598.0
sg5
F841602.5263157894
sg6
F1639297.0
sg7
F375304.0
sg8
F27975000.0
sg9
F1250000.0
sg10
F621892.8235294118
sg11
F126027.0
sg12
F35818.0
sg13
F199.0
sg14
F3039980.4081632653
sg15
F144.0
sg16
F486.0
sg17
F25.0
sg18
F0.1736111111111111
sg19
I01
sg20
F-262500.0
sg21
F2188.0
sg22
F126027.0
sg23
F87858.26666666666
ssS'RICE KENNETH D'
p190
(dp191
g3
F420636.0
sg4
F905.0
sg5
F841602.5263157894
sg6
F505050.0
sg7
F1617011.0
sg8
F27975000.0
sg9
F1750000.0
sg10
F621892.8235294118
sg11
F22542539.0
sg12
F46950.0
sg13
F42.0
sg14
F19794175.0
sg15
F18.0
sg16
F174839.0
sg17
F4.0
sg18
F0.2222222222222222
sg19
I01
sg20
F-3504386.0
sg21
F864.0
sg22
F2748364.0
sg23
F87858.26666666666
ssS'KAMINSKI WINCENTY J'
p192
(dp193
g3
F275101.0
sg4
F4607.0
sg5
F841602.5263157894
sg6
F1086821.0
sg7
F323466.0
sg8
F27975000.0
sg9
F400000.0
sg10
F621892.8235294118
sg11
F976037.0
sg12
F83585.0
sg13
F41.0
sg14
F850010.0
sg15
F14368.0
sg16
F4669.0
sg17
F171.0
sg18
F0.011901447661469933
sg19
I00
sg20
F-581049.8125
sg21
F583.0
sg22
F126027.0
sg23
F87858.26666666666
ssS'COX DAVID'
p194
(dp195
g3
F314288.0
sg4
F102.0
sg5
F841602.5263157894
sg6
F1101393.0
sg7
F746491.2
sg8
F27975000.0
sg9
F800000.0
sg10
F621892.8235294118
sg11
F495633.0
sg12
F27861.0
sg13
F0.0
sg14
F117551.0
sg15
F33.0
sg16
F494.0
sg17
F4.0
sg18
F0.12121212121212122
sg19
I00
sg20
F-41250.0
sg21
F71.0
sg22
F378082.0
sg23
F87858.26666666666
ssS'OVERDYKE JR JERE C'
p196
(dp197
g3
F94941.0
sg4
F2073.860465116279
sg5
F841602.5263157894
sg6
F249787.0
sg7
F135836.0
sg8
F27975000.0
sg9
F1201773.0740740742
sg10
F621892.8235294118
sg11
F7307594.0
sg12
F18834.0
sg13
F64.8953488372093
sg14
F5266578.0
sg15
F608.7906976744187
sg16
F176.0
sg17
F41.23255813953488
sg18
F0.06772862709145083
sg19
I00
sg20
F-581049.8125
sg21
F1176.4651162790697
sg22
F2041016.0
sg23
F87858.26666666666
ssS'PEREIRA PAULO V. FERRAZ'
p198
(dp199
g3
F284087.5425531915
sg4
F2073.860465116279
sg5
F841602.5263157894
sg6
F27942.0
sg7
F746491.2
sg8
F27975000.0
sg9
F1201773.0740740742
sg10
F621892.8235294118
sg11
F3426325.598360656
sg12
F27942.0
sg13
F64.8953488372093
sg14
F3039980.4081632653
sg15
F608.7906976744187
sg16
F469486.3777777778
sg17
F41.23255813953488
sg18
F0.06772862709145083
sg19
I00
sg20
F-101250.0
sg21
F1176.4651162790697
sg22
F1147424.0917431193
sg23
F101250.0
ssS'STABLER FRANK'
p200
(dp201
g3
F239502.0
sg4
F2073.860465116279
sg5
F841602.5263157894
sg6
F1112087.0
sg7
F746491.2
sg8
F27975000.0
sg9
F500000.0
sg10
F621892.8235294118
sg11
F511734.0
sg12
F16514.0
sg13
F64.8953488372093
sg14
F3039980.4081632653
sg15
F608.7906976744187
sg16
F356071.0
sg17
F41.23255813953488
sg18
F0.06772862709145083
sg19
I00
sg20
F-581049.8125
sg21
F1176.4651162790697
sg22
F511734.0
sg23
F87858.26666666666
ssS'SKILLING JEFFREY K'
p202
(dp203
g3
F1111258.0
sg4
F3627.0
sg5
F841602.5263157894
sg6
F8682716.0
sg7
F1920000.0
sg8
F27975000.0
sg9
F5600000.0
sg10
F621892.8235294118
sg11
F26093672.0
sg12
F29336.0
sg13
F88.0
sg14
F19250000.0
sg15
F108.0
sg16
F22122.0
sg17
F30.0
sg18
F0.2777777777777778
sg19
I01
sg20
F-581049.8125
sg21
F2042.0
sg22
F6843672.0
sg23
F87858.26666666666
ssS'BLAKE JR. NORMAN P'
p204
(dp205
g3
F284087.5425531915
sg4
F2073.860465116279
sg5
F841602.5263157894
sg6
F1279.0
sg7
F746491.2
sg8
F27975000.0
sg9
F1201773.0740740742
sg10
F621892.8235294118
sg11
F3426325.598360656
sg12
F1279.0
sg13
F64.8953488372093
sg14
F3039980.4081632653
sg15
F608.7906976744187
sg16
F469486.3777777778
sg17
F41.23255813953488
sg18
F0.06772862709145083
sg19
I00
sg20
F-113784.0
sg21
F1176.4651162790697
sg22
F1147424.0917431193
sg23
F113784.0
ssS'SHERRICK JEFFREY B'
p206
(dp207
g3
F284087.5425531915
sg4
F613.0
sg5
F841602.5263157894
sg6
F2682919.4628099175
sg7
F746491.2
sg8
F27975000.0
sg9
F1201773.0740740742
sg10
F621892.8235294118
sg11
F1832468.0
sg12
F54192.01063829787
sg13
F39.0
sg14
F1426469.0
sg15
F25.0
sg16
F469486.3777777778
sg17
F18.0
sg18
F0.72
sg19
I00
sg20
F-581049.8125
sg21
F583.0
sg22
F405999.0
sg23
F87858.26666666666
ssS'PRENTICE JAMES'
p208
(dp209
g3
F284087.5425531915
sg4
F2073.860465116279
sg5
F564348.0
sg6
F564348.0
sg7
F746491.2
sg8
F27975000.0
sg9
F1201773.0740740742
sg10
F621892.8235294118
sg11
F1095040.0
sg12
F54192.01063829787
sg13
F64.8953488372093
sg14
F886231.0
sg15
F608.7906976744187
sg16
F469486.3777777778
sg17
F41.23255813953488
sg18
F0.06772862709145083
sg19
I00
sg20
F-581049.8125
sg21
F1176.4651162790697
sg22
F208809.0
sg23
F87858.26666666666
ssS'GRAY RODNEY'
p210
(dp211
g3
F6615.0
sg4
F2073.860465116279
sg5
F93585.0
sg6
F1146658.0
sg7
F365625.0
sg8
F27975000.0
sg9
F1201773.0740740742
sg10
F621892.8235294118
sg11
F3426325.598360656
sg12
F54192.01063829787
sg13
F64.8953488372093
sg14
F3039980.4081632653
sg15
F608.7906976744187
sg16
F680833.0
sg17
F41.23255813953488
sg18
F0.06772862709145083
sg19
I00
sg20
F-581049.8125
sg21
F1176.4651162790697
sg22
F1147424.0917431193
sg23
F87858.26666666666
ssS'PICKERING MARK R'
p212
(dp213
g3
F655037.0
sg4
F898.0
sg5
F841602.5263157894
sg6
F1386690.0
sg7
F746491.2
sg8
F400000.0
sg9
F300000.0
sg10
F621892.8235294118
sg11
F28798.0
sg12
F31653.0
sg13
F7.0
sg14
F28798.0
sg15
F67.0
sg16
F469486.3777777778
sg17
F0.0
sg18
F0.0
sg19
I00
sg20
F-581049.8125
sg21
F728.0
sg22
F1147424.0917431193
sg23
F87858.26666666666
ssS'NOLES JAMES L'
p214
(dp215
g3
F284087.5425531915
sg4
F2073.860465116279
sg5
F774401.0
sg6
F774401.0
sg7
F746491.2
sg8
F27975000.0
sg9
F1201773.0740740742
sg10
F-94556.0
sg11
F368705.0
sg12
F54192.01063829787
sg13
F64.8953488372093
sg14
F3039980.4081632653
sg15
F608.7906976744187
sg16
F469486.3777777778
sg17
F41.23255813953488
sg18
F0.06772862709145083
sg19
I00
sg20
F-581049.8125
sg21
F1176.4651162790697
sg22
F463261.0
sg23
F87858.26666666666
ssS'KEAN STEVEN J'
p216
(dp217
g3
F404338.0
sg4
F12754.0
sg5
F841602.5263157894
sg6
F1747522.0
sg7
F300000.0
sg8
F27975000.0
sg9
F1000000.0
sg10
F621892.8235294118
sg11
F6153642.0
sg12
F41953.0
sg13
F140.0
sg14
F2022048.0
sg15
F6759.0
sg16
F1231.0
sg17
F387.0
sg18
F0.05725699067909454
sg19
I00
sg20
F-581049.8125
sg21
F3639.0
sg22
F4131594.0
sg23
F87858.26666666666
ssS'FOWLER PEGGY'
p218
(dp219
g3
F284087.5425531915
sg4
F517.0
sg5
F841602.5263157894
sg6
F2682919.4628099175
sg7
F746491.2
sg8
F27975000.0
sg9
F1201773.0740740742
sg10
F621892.8235294118
sg11
F1884748.0
sg12
F54192.01063829787
sg13
F0.0
sg14
F1324578.0
sg15
F36.0
sg16
F469486.3777777778
sg17
F0.0
sg18
F0.0
sg19
I00
sg20
F-581049.8125
sg21
F10.0
sg22
F560170.0
sg23
F87858.26666666666
ssS'WASAFF GEORGE'
p220
(dp221
g3
F259996.0
sg4
F400.0
sg5
F831299.0
sg6
F1034395.0
sg7
F200000.0
sg8
F27975000.0
sg9
F325000.0
sg10
F621892.8235294118
sg11
F2056427.0
sg12
F54192.01063829787
sg13
F22.0
sg14
F1668260.0
sg15
F30.0
sg16
F1425.0
sg17
F7.0
sg18
F0.23333333333333334
sg19
I00
sg20
F-583325.0
sg21
F337.0
sg22
F388167.0
sg23
F87858.26666666666
ssS'WHITE JR THOMAS E'
p222
(dp223
g3
F317543.0
sg4
F2073.860465116279
sg5
F841602.5263157894
sg6
F1934359.0
sg7
F746491.2
sg8
F27975000.0
sg9
F450000.0
sg10
F621892.8235294118
sg11
F15144123.0
sg12
F81353.0
sg13
F64.8953488372093
sg14
F1297049.0
sg15
F608.7906976744187
sg16
F1085463.0
sg17
F41.23255813953488
sg18
F0.06772862709145083
sg19
I00
sg20
F-581049.8125
sg21
F1176.4651162790697
sg22
F13847074.0
sg23
F87858.26666666666
ssS'CHRISTODOULOU DIOMEDES'
p224
(dp225
g3
F284087.5425531915
sg4
F2073.860465116279
sg5
F841602.5263157894
sg6
F2682919.4628099175
sg7
F746491.2
sg8
F27975000.0
sg9
F1201773.0740740742
sg10
F621892.8235294118
sg11
F6077885.0
sg12
F54192.01063829787
sg13
F64.8953488372093
sg14
F5127155.0
sg15
F608.7906976744187
sg16
F469486.3777777778
sg17
F41.23255813953488
sg18
F0.06772862709145083
sg19
I00
sg20
F-581049.8125
sg21
F1176.4651162790697
sg22
F950730.0
sg23
F87858.26666666666
ssS'ALLEN PHILLIP K'
p226
(dp227
g3
F201955.0
sg4
F2902.0
sg5
F2869717.0
sg6
F4484442.0
sg7
F304805.0
sg8
F27975000.0
sg9
F4175000.0
sg10
F-126027.0
sg11
F1729541.0
sg12
F13868.0
sg13
F47.0
sg14
F1729541.0
sg15
F2195.0
sg16
F152.0
sg17
F65.0
sg18
F0.029612756264236904
sg19
I00
sg20
F-3081055.0
sg21
F1407.0
sg22
F126027.0
sg23
F87858.26666666666
ssS'SHARP VICTORIA T'
p228
(dp229
g3
F248146.0
sg4
F3136.0
sg5
F187469.0
sg6
F1576511.0
sg7
F422158.0
sg8
F27975000.0
sg9
F600000.0
sg10
F621892.8235294118
sg11
F494136.0
sg12
F116337.0
sg13
F24.0
sg14
F281073.0
sg15
F136.0
sg16
F2401.0
sg17
F6.0
sg18
F0.04411764705882353
sg19
I00
sg20
F-581049.8125
sg21
F2477.0
sg22
F213063.0
sg23
F87858.26666666666
ssS'JAEDICKE ROBERT'
p230
(dp231
g3
F284087.5425531915
sg4
F2073.860465116279
sg5
F841602.5263157894
sg6
F83750.0
sg7
F746491.2
sg8
F27975000.0
sg9
F1201773.0740740742
sg10
F-44093.0
sg11
F431750.0
sg12
F54192.01063829787
sg13
F64.8953488372093
sg14
F431750.0
sg15
F608.7906976744187
sg16
F469486.3777777778
sg17
F41.23255813953488
sg18
F0.06772862709145083
sg19
I00
sg20
F-25000.0
sg21
F1176.4651162790697
sg22
F44093.0
sg23
F108750.0
ssS'WINOKUR JR. HERBERT S'
p232
(dp233
g3
F284087.5425531915
sg4
F2073.860465116279
sg5
F841602.5263157894
sg6
F84992.0
sg7
F746491.2
sg8
F27975000.0
sg9
F1201773.0740740742
sg10
F621892.8235294118
sg11
F3426325.598360656
sg12
F1413.0
sg13
F64.8953488372093
sg14
F3039980.4081632653
sg15
F608.7906976744187
sg16
F469486.3777777778
sg17
F41.23255813953488
sg18
F0.06772862709145083
sg19
I00
sg20
F-25000.0
sg21
F1176.4651162790697
sg22
F1147424.0917431193
sg23
F108579.0
ssS'BROWN MICHAEL'
p234
(dp235
g3
F284087.5425531915
sg4
F1486.0
sg5
F841602.5263157894
sg6
F49288.0
sg7
F746491.2
sg8
F27975000.0
sg9
F1201773.0740740742
sg10
F621892.8235294118
sg11
F3426325.598360656
sg12
F49288.0
sg13
F13.0
sg14
F3039980.4081632653
sg15
F41.0
sg16
F469486.3777777778
sg17
F1.0
sg18
F0.024390243902439025
sg19
I00
sg20
F-581049.8125
sg21
F761.0
sg22
F1147424.0917431193
sg23
F87858.26666666666
ssS'BADUM JAMES P'
p236
(dp237
g3
F284087.5425531915
sg4
F2073.860465116279
sg5
F178980.0
sg6
F182466.0
sg7
F746491.2
sg8
F27975000.0
sg9
F1201773.0740740742
sg10
F621892.8235294118
sg11
F257817.0
sg12
F3486.0
sg13
F64.8953488372093
sg14
F257817.0
sg15
F608.7906976744187
sg16
F469486.3777777778
sg17
F41.23255813953488
sg18
F0.06772862709145083
sg19
I00
sg20
F-581049.8125
sg21
F1176.4651162790697
sg22
F1147424.0917431193
sg23
F87858.26666666666
ssS'HUGHES JAMES A'
p238
(dp239
g3
F284087.5425531915
sg4
F719.0
sg5
F841602.5263157894
sg6
F2682919.4628099175
sg7
F746491.2
sg8
F27975000.0
sg9
F1201773.0740740742
sg10
F621892.8235294118
sg11
F1118394.0
sg12
F54192.01063829787
sg13
F35.0
sg14
F754966.0
sg15
F34.0
sg16
F469486.3777777778
sg17
F5.0
sg18
F0.14705882352941177
sg19
I00
sg20
F-581049.8125
sg21
F589.0
sg22
F363428.0
sg23
F87858.26666666666
ssS'REYNOLDS LAWRENCE'
p240
(dp241
g3
F76399.0
sg4
F2073.860465116279
sg5
F51365.0
sg6
F394475.0
sg7
F156250.0
sg8
F27975000.0
sg9
F100000.0
sg10
F-140264.0
sg11
F4221891.0
sg12
F8409.0
sg13
F64.8953488372093
sg14
F4160672.0
sg15
F608.7906976744187
sg16
F202052.0
sg17
F41.23255813953488
sg18
F0.06772862709145083
sg19
I00
sg20
F-200000.0
sg21
F1176.4651162790697
sg22
F201483.0
sg23
F87858.26666666666
ssS'DIMICHELE RICHARD G'
p242
(dp243
g3
F262788.0
sg4
F2073.860465116279
sg5
F841602.5263157894
sg6
F2368151.0
sg7
F694862.0
sg8
F27975000.0
sg9
F1000000.0
sg10
F621892.8235294118
sg11
F8317782.0
sg12
F35812.0
sg13
F64.8953488372093
sg14
F8191755.0
sg15
F608.7906976744187
sg16
F374689.0
sg17
F41.23255813953488
sg18
F0.06772862709145083
sg19
I00
sg20
F-581049.8125
sg21
F1176.4651162790697
sg22
F126027.0
sg23
F87858.26666666666
ssS'BHATNAGAR SANJAY'
p244
(dp245
g3
F284087.5425531915
sg4
F523.0
sg5
F841602.5263157894
sg6
F15456290.0
sg7
F746491.2
sg8
F27975000.0
sg9
F1201773.0740740742
sg10
F15456290.0
sg11
F3426325.598360656
sg12
F54192.01063829787
sg13
F0.0
sg14
F2604490.0
sg15
F29.0
sg16
F137864.0
sg17
F1.0
sg18
F0.034482758620689655
sg19
I00
sg20
F-581049.8125
sg21
F463.0
sg22
F-2604490.0
sg23
F137864.0
ssS'CARTER REBECCA C'
p246
(dp247
g3
F261809.0
sg4
F312.0
sg5
F841602.5263157894
sg6
F477557.0
sg7
F75000.0
sg8
F27975000.0
sg9
F300000.0
sg10
F-307301.0
sg11
F3426325.598360656
sg12
F54192.01063829787
sg13
F29.0
sg14
F3039980.4081632653
sg15
F15.0
sg16
F540.0
sg17
F7.0
sg18
F0.4666666666666667
sg19
I00
sg20
F-159792.0
sg21
F196.0
sg22
F307301.0
sg23
F87858.26666666666
ssS'BUCHANAN HAROLD G'
p248
(dp249
g3
F248017.0
sg4
F1088.0
sg5
F841602.5263157894
sg6
F1054637.0
sg7
F304805.0
sg8
F27975000.0
sg9
F500000.0
sg10
F621892.8235294118
sg11
F1014505.0
sg12
F600.0
sg13
F0.0
sg14
F825464.0
sg15
F125.0
sg16
F1215.0
sg17
F0.0
sg18
F0.0
sg19
I00
sg20
F-581049.8125
sg21
F23.0
sg22
F189041.0
sg23
F87858.26666666666
ssS'YEAP SOON'
p250
(dp251
g3
F284087.5425531915
sg4
F2073.860465116279
sg5
F841602.5263157894
sg6
F55097.0
sg7
F746491.2
sg8
F27975000.0
sg9
F1201773.0740740742
sg10
F621892.8235294118
sg11
F192758.0
sg12
F55097.0
sg13
F64.8953488372093
sg14
F192758.0
sg15
F608.7906976744187
sg16
F469486.3777777778
sg17
F41.23255813953488
sg18
F0.06772862709145083
sg19
I00
sg20
F-581049.8125
sg21
F1176.4651162790697
sg22
F1147424.0917431193
sg23
F87858.26666666666
ssS'MURRAY JULIA H'
p252
(dp253
g3
F229284.0
sg4
F2192.0
sg5
F841602.5263157894
sg6
F812194.0
sg7
F125000.0
sg8
F27975000.0
sg9
F400000.0
sg10
F621892.8235294118
sg11
F597461.0
sg12
F57580.0
sg13
F11.0
sg14
F400478.0
sg15
F45.0
sg16
F330.0
sg17
F2.0
sg18
F0.044444444444444446
sg19
I00
sg20
F-581049.8125
sg21
F395.0
sg22
F196983.0
sg23
F87858.26666666666
ssS'GARLAND C KEVIN'
p254
(dp255
g3
F231946.0
sg4
F209.0
sg5
F841602.5263157894
sg6
F1566469.0
sg7
F375304.0
sg8
F27975000.0
sg9
F850000.0
sg10
F621892.8235294118
sg11
F896153.0
sg12
F48405.0
sg13
F10.0
sg14
F636246.0
sg15
F44.0
sg16
F60814.0
sg17
F27.0
sg18
F0.6136363636363636
sg19
I00
sg20
F-581049.8125
sg21
F178.0
sg22
F259907.0
sg23
F87858.26666666666
ssS'DODSON KEITH'
p256
(dp257
g3
F221003.0
sg4
F176.0
sg5
F841602.5263157894
sg6
F319941.0
sg7
F746491.2
sg8
F27975000.0
sg9
F70000.0
sg10
F621892.8235294118
sg11
F3426325.598360656
sg12
F28164.0
sg13
F10.0
sg14
F3039980.4081632653
sg15
F14.0
sg16
F774.0
sg17
F3.0
sg18
F0.21428571428571427
sg19
I00
sg20
F-581049.8125
sg21
F114.0
sg22
F1147424.0917431193
sg23
F87858.26666666666
ssS'YEAGER F SCOTT'
p258
(dp259
g3
F158403.0
sg4
F2073.860465116279
sg5
F841602.5263157894
sg6
F360300.0
sg7
F746491.2
sg8
F27975000.0
sg9
F1201773.0740740742
sg10
F621892.8235294118
sg11
F11884758.0
sg12
F53947.0
sg13
F64.8953488372093
sg14
F8308552.0
sg15
F608.7906976744187
sg16
F147950.0
sg17
F41.23255813953488
sg18
F0.06772862709145083
sg19
I01
sg20
F-581049.8125
sg21
F1176.4651162790697
sg22
F3576206.0
sg23
F87858.26666666666
ssS'HIRKO JOSEPH'
p260
(dp261
g3
F284087.5425531915
sg4
F2073.860465116279
sg5
F10259.0
sg6
F91093.0
sg7
F746491.2
sg8
F27975000.0
sg9
F1201773.0740740742
sg10
F621892.8235294118
sg11
F30766064.0
sg12
F77978.0
sg13
F64.8953488372093
sg14
F30766064.0
sg15
F608.7906976744187
sg16
F2856.0
sg17
F41.23255813953488
sg18
F0.06772862709145083
sg19
I01
sg20
F-581049.8125
sg21
F1176.4651162790697
sg22
F1147424.0917431193
sg23
F87858.26666666666
ssS'DIETRICH JANET R'
p262
(dp263
g3
F250100.0
sg4
F2572.0
sg5
F841602.5263157894
sg6
F1410464.0
sg7
F556416.0
sg8
F27975000.0
sg9
F600000.0
sg10
F621892.8235294118
sg11
F1865087.0
sg12
F3475.0
sg13
F305.0
sg14
F1550019.0
sg15
F63.0
sg16
F473.0
sg17
F14.0
sg18
F0.2222222222222222
sg19
I00
sg20
F-581049.8125
sg21
F1902.0
sg22
F315068.0
sg23
F87858.26666666666
ssS'DERRICK JR. JAMES V'
p264
(dp265
g3
F492375.0
sg4
F2181.0
sg5
F841602.5263157894
sg6
F550981.0
sg7
F484000.0
sg8
F27975000.0
sg9
F800000.0
sg10
F-1787380.0
sg11
F8831913.0
sg12
F51124.0
sg13
F64.0
sg14
F8831913.0
sg15
F909.0
sg16
F7482.0
sg17
F20.0
sg18
F0.022002200220022004
sg19
I00
sg20
F-1284000.0
sg21
F1401.0
sg22
F1787380.0
sg23
F87858.26666666666
ssS'FREVERT MARK A'
p266
(dp267
g3
F1060932.0
sg4
F3275.0
sg5
F6426990.0
sg6
F17252530.0
sg7
F1617011.0
sg8
F2000000.0
sg9
F2000000.0
sg10
F621892.8235294118
sg11
F14622185.0
sg12
F86987.0
sg13
F242.0
sg14
F10433518.0
sg15
F21.0
sg16
F7427621.0
sg17
F6.0
sg18
F0.2857142857142857
sg19
I00
sg20
F-3367011.0
sg21
F2979.0
sg22
F4188667.0
sg23
F87858.26666666666
ssS'PAI LOU L'
p268
(dp269
g3
F261879.0
sg4
F2073.860465116279
sg5
F841602.5263157894
sg6
F3123383.0
sg7
F746491.2
sg8
F27975000.0
sg9
F1000000.0
sg10
F621892.8235294118
sg11
F23817930.0
sg12
F32047.0
sg13
F64.8953488372093
sg14
F15364167.0
sg15
F608.7906976744187
sg16
F1829457.0
sg17
F41.23255813953488
sg18
F0.06772862709145083
sg19
I00
sg20
F-581049.8125
sg21
F1176.4651162790697
sg22
F8453763.0
sg23
F87858.26666666666
ssS'BAY FRANKLIN R'
p270
(dp271
g3
F239671.0
sg4
F2073.860465116279
sg5
F260455.0
sg6
F827696.0
sg7
F746491.2
sg8
F27975000.0
sg9
F400000.0
sg10
F-82782.0
sg11
F63014.0
sg12
F129142.0
sg13
F64.8953488372093
sg14
F3039980.4081632653
sg15
F608.7906976744187
sg16
F69.0
sg17
F41.23255813953488
sg18
F0.06772862709145083
sg19
I00
sg20
F-201641.0
sg21
F1176.4651162790697
sg22
F145796.0
sg23
F87858.26666666666
ssS'MCCARTY DANNY J'
p272
(dp273
g3
F284087.5425531915
sg4
F1433.0
sg5
F841602.5263157894
sg6
F2682919.4628099175
sg7
F746491.2
sg8
F27975000.0
sg9
F1201773.0740740742
sg10
F621892.8235294118
sg11
F758931.0
sg12
F54192.01063829787
sg13
F25.0
sg14
F664375.0
sg15
F215.0
sg16
F469486.3777777778
sg17
F2.0
sg18
F0.009302325581395349
sg19
I00
sg20
F-581049.8125
sg21
F508.0
sg22
F94556.0
sg23
F87858.26666666666
ssS'FUGH JOHN L'
p274
(dp275
g3
F284087.5425531915
sg4
F2073.860465116279
sg5
F50591.0
sg6
F50591.0
sg7
F746491.2
sg8
F27975000.0
sg9
F1201773.0740740742
sg10
F621892.8235294118
sg11
F176378.0
sg12
F54192.01063829787
sg13
F64.8953488372093
sg14
F176378.0
sg15
F608.7906976744187
sg16
F469486.3777777778
sg17
F41.23255813953488
sg18
F0.06772862709145083
sg19
I00
sg20
F-581049.8125
sg21
F1176.4651162790697
sg22
F1147424.0917431193
sg23
F87858.26666666666
ssS'FALLON JAMES B'
p276
(dp277
g3
F304588.0
sg4
F1755.0
sg5
F841602.5263157894
sg6
F3676340.0
sg7
F374347.0
sg8
F27975000.0
sg9
F2500000.0
sg10
F621892.8235294118
sg11
F2332399.0
sg12
F95924.0
sg13
F42.0
sg14
F940257.0
sg15
F75.0
sg16
F401481.0
sg17
F37.0
sg18
F0.49333333333333335
sg19
I00
sg20
F-581049.8125
sg21
F1604.0
sg22
F1392142.0
sg23
F87858.26666666666
ssS'KOENIG MARK E'
p278
(dp279
g3
F309946.0
sg4
F2374.0
sg5
F841602.5263157894
sg6
F1587421.0
sg7
F300000.0
sg8
F27975000.0
sg9
F700000.0
sg10
F621892.8235294118
sg11
F1920055.0
sg12
F127017.0
sg13
F53.0
sg14
F671737.0
sg15
F61.0
sg16
F150458.0
sg17
F15.0
sg18
F0.2459016393442623
sg19
I01
sg20
F-581049.8125
sg21
F2271.0
sg22
F1248318.0
sg23
F87858.26666666666
ssS'SAVAGE FRANK'
p280
(dp281
g3
F284087.5425531915
sg4
F2073.860465116279
sg5
F841602.5263157894
sg6
F3750.0
sg7
F746491.2
sg8
F27975000.0
sg9
F1201773.0740740742
sg10
F621892.8235294118
sg11
F3426325.598360656
sg12
F54192.01063829787
sg13
F64.8953488372093
sg14
F3039980.4081632653
sg15
F608.7906976744187
sg16
F469486.3777777778
sg17
F41.23255813953488
sg18
F0.06772862709145083
sg19
I00
sg20
F-121284.0
sg21
F1176.4651162790697
sg22
F1147424.0917431193
sg23
F125034.0
ssS'IZZO LAWRENCE L'
p282
(dp283
g3
F85274.0
sg4
F496.0
sg5
F841602.5263157894
sg6
F1979596.0
sg7
F312500.0
sg8
F27975000.0
sg9
F1201773.0740740742
sg10
F621892.8235294118
sg11
F5819980.0
sg12
F28093.0
sg13
F28.0
sg14
F2165172.0
sg15
F19.0
sg16
F1553729.0
sg17
F5.0
sg18
F0.2631578947368421
sg19
I00
sg20
F-581049.8125
sg21
F437.0
sg22
F3654808.0
sg23
F87858.26666666666
ssS'TILNEY ELIZABETH A'
p284
(dp285
g3
F247338.0
sg4
F460.0
sg5
F841602.5263157894
sg6
F399393.0
sg7
F275000.0
sg8
F27975000.0
sg9
F300000.0
sg10
F621892.8235294118
sg11
F1168042.0
sg12
F54192.01063829787
sg13
F10.0
sg14
F591250.0
sg15
F19.0
sg16
F152055.0
sg17
F11.0
sg18
F0.5789473684210527
sg19
I00
sg20
F-575000.0
sg21
F379.0
sg22
F576792.0
sg23
F87858.26666666666
ssS'MARTIN AMANDA K'
p286
(dp287
g3
F349487.0
sg4
F1522.0
sg5
F85430.0
sg6
F8407016.0
sg7
F5145434.0
sg8
F27975000.0
sg9
F1201773.0740740742
sg10
F621892.8235294118
sg11
F2070306.0
sg12
F8211.0
sg13
F8.0
sg14
F2070306.0
sg15
F230.0
sg16
F2818454.0
sg17
F0.0
sg18
F0.0
sg19
I00
sg20
F-581049.8125
sg21
F477.0
sg22
F1147424.0917431193
sg23
F87858.26666666666
ssS'BUY RICHARD B'
p288
(dp289
g3
F330546.0
sg4
F3523.0
sg5
F649584.0
sg6
F2355702.0
sg7
F769862.0
sg8
F27975000.0
sg9
F900000.0
sg10
F621892.8235294118
sg11
F3444470.0
sg12
F54192.01063829787
sg13
F156.0
sg14
F2542813.0
sg15
F1053.0
sg16
F400572.0
sg17
F71.0
sg18
F0.06742640075973409
sg19
I00
sg20
F-694862.0
sg21
F2333.0
sg22
F901657.0
sg23
F87858.26666666666
ssS'CAUSEY RICHARD A'
p290
(dp291
g3
F415189.0
sg4
F1892.0
sg5
F841602.5263157894
sg6
F1868758.0
sg7
F350000.0
sg8
F27975000.0
sg9
F1000000.0
sg10
F621892.8235294118
sg11
F2502063.0
sg12
F30674.0
sg13
F58.0
sg14
F3039980.4081632653
sg15
F49.0
sg16
F307895.0
sg17
F12.0
sg18
F0.24489795918367346
sg19
I01
sg20
F-235000.0
sg21
F1585.0
sg22
F2502063.0
sg23
F87858.26666666666
ssS'TAYLOR MITCHELL S'
p292
(dp293
g3
F265214.0
sg4
F533.0
sg5
F227449.0
sg6
F1092663.0
sg7
F746491.2
sg8
F27975000.0
sg9
F600000.0
sg10
F621892.8235294118
sg11
F3745048.0
sg12
F54192.01063829787
sg13
F0.0
sg14
F3181250.0
sg15
F29.0
sg16
F469486.3777777778
sg17
F0.0
sg18
F0.0
sg19
I00
sg20
F-581049.8125
sg21
F300.0
sg22
F563798.0
sg23
F87858.26666666666
ssS'DONAHUE JR JEFFREY M'
p294
(dp295
g3
F278601.0
sg4
F865.0
sg5
F841602.5263157894
sg6
F875760.0
sg7
F746491.2
sg8
F27975000.0
sg9
F800000.0
sg10
F621892.8235294118
sg11
F1080988.0
sg12
F96268.0
sg13
F188.0
sg14
F765920.0
sg15
F22.0
sg16
F891.0
sg17
F11.0
sg18
F0.5
sg19
I00
sg20
F-300000.0
sg21
F772.0
sg22
F315068.0
sg23
F87858.26666666666
ssS'GLISAN JR BEN F'
p296
(dp297
g3
F274975.0
sg4
F873.0
sg5
F841602.5263157894
sg6
F1272284.0
sg7
F71023.0
sg8
F27975000.0
sg9
F600000.0
sg10
F621892.8235294118
sg11
F778546.0
sg12
F125978.0
sg13
F52.0
sg14
F384728.0
sg15
F16.0
sg16
F200308.0
sg17
F6.0
sg18
F0.375
sg19
I01
sg20
F-581049.8125
sg21
F874.0
sg22
F393818.0
sg23
F87858.26666666666
ss.